target datalayout = "e-m:e-p270:32:32-p271:32:32-p272:64:64-i64:64-i128:128-f80:128-n8:16:32:64-S128"
target triple = "x86_64-unknown-linux-gnu"

%struct.QTailQLink = type { ptr, ptr }
%struct.qemu_plugin_parse_arg = type { ptr, ptr }
%struct.qemu_plugin_desc = type { ptr, ptr, %union.anon.4, i32 }
%union.anon.4 = type { %struct.QTailQLink }

@.str.1 = private unnamed_addr constant [5 x i8] c"file\00", align 1
@.str.3 = private unnamed_addr constant [25 x i8] c"../qemu/plugins/loader.c\00", align 1
@.str.6 = private unnamed_addr constant [1 x i8] zeroinitializer, align 1
@__func__.plugin_add = private unnamed_addr constant [11 x i8] c"plugin_add\00", align 1
@.str.7 = private unnamed_addr constant [30 x i8] c"requires a non-empty argument\00", align 1
@.str.8 = private unnamed_addr constant [39 x i8] c"missing earlier '-plugin file=' option\00", align 1
@.str.9 = private unnamed_addr constant [4 x i8] c"arg\00", align 1
@.str.10 = private unnamed_addr constant [6 x i8] c"%s=%s\00", align 1
@.str.11 = private unnamed_addr constant [3 x i8] c"on\00", align 1
@.str.12 = private unnamed_addr constant [3 x i8] c"%s\00", align 1
@.str.13 = private unnamed_addr constant [29 x i8] c"using 'arg=%s' is deprecated\00", align 1
@.str.14 = private unnamed_addr constant [26 x i8] c"Please use '%s' directly\0A\00", align 1

; Function Attrs: nounwind sspstrong uwtable
define internal ptr @plugin_find_desc(ptr noundef %head, ptr noundef %path) #0 {
entry:
  %retval = alloca ptr, align 8
  %head.addr = alloca ptr, align 8
  %path.addr = alloca ptr, align 8
  %desc = alloca ptr, align 8
  store ptr %head, ptr %head.addr, align 8
  store ptr %path, ptr %path.addr, align 8
  %0 = load ptr, ptr %head.addr, align 8
  %1 = load ptr, ptr %0, align 8
  store ptr %1, ptr %desc, align 8
  br label %for.cond

for.cond:                                         ; preds = %for.inc, %entry
  %2 = load ptr, ptr %desc, align 8
  %tobool = icmp ne ptr %2, null
  br i1 %tobool, label %for.body, label %for.end

for.body:                                         ; preds = %for.cond
  %3 = load ptr, ptr %desc, align 8
  %path1 = getelementptr inbounds %struct.qemu_plugin_desc, ptr %3, i32 0, i32 0
  %4 = load ptr, ptr %path1, align 8
  %5 = load ptr, ptr %path.addr, align 8
  %call = call i32 @strcmp(ptr noundef %4, ptr noundef %5) #10
  %cmp = icmp eq i32 %call, 0
  br i1 %cmp, label %if.then, label %if.end

if.then:                                          ; preds = %for.body
  %6 = load ptr, ptr %desc, align 8
  store ptr %6, ptr %retval, align 8
  br label %return

if.end:                                           ; preds = %for.body
  br label %for.inc

for.inc:                                          ; preds = %if.end
  %7 = load ptr, ptr %desc, align 8
  %entry2 = getelementptr inbounds %struct.qemu_plugin_desc, ptr %7, i32 0, i32 2
  %8 = load ptr, ptr %entry2, align 8
  store ptr %8, ptr %desc, align 8
  br label %for.cond, !llvm.loop !8

for.end:                                          ; preds = %for.cond
  store ptr null, ptr %retval, align 8
  br label %return

return:                                           ; preds = %for.end, %if.then
  %9 = load ptr, ptr %retval, align 8
  ret ptr %9
}

; Function Attrs: nounwind sspstrong uwtable
define internal i32 @plugin_add(ptr noundef %opaque, ptr noundef %name, ptr noundef %value, ptr noundef %errp) #0 {
entry:
  %retval = alloca i32, align 4
  %opaque.addr = alloca ptr, align 8
  %name.addr = alloca ptr, align 8
  %value.addr = alloca ptr, align 8
  %errp.addr = alloca ptr, align 8
  %arg = alloca ptr, align 8
  %p = alloca ptr, align 8
  %is_on = alloca i8, align 1
  %fullarg = alloca ptr, align 8
  store ptr %opaque, ptr %opaque.addr, align 8
  store ptr %name, ptr %name.addr, align 8
  store ptr %value, ptr %value.addr, align 8
  store ptr %errp, ptr %errp.addr, align 8
  %0 = load ptr, ptr %opaque.addr, align 8
  store ptr %0, ptr %arg, align 8
  %1 = load ptr, ptr %name.addr, align 8
  %call = call i32 @strcmp(ptr noundef %1, ptr noundef @.str.1) #10
  %cmp = icmp eq i32 %call, 0
  br i1 %cmp, label %if.then, label %if.else

if.then:                                          ; preds = %entry
  %2 = load ptr, ptr %value.addr, align 8
  %call1 = call i32 @strcmp(ptr noundef %2, ptr noundef @.str.6) #10
  %cmp2 = icmp eq i32 %call1, 0
  br i1 %cmp2, label %if.then3, label %if.end

if.then3:                                         ; preds = %if.then
  %3 = load ptr, ptr %errp.addr, align 8
  call void (ptr, ptr, i32, ptr, ptr, ...) @error_setg_internal(ptr noundef %3, ptr noundef @.str.3, i32 noundef 104, ptr noundef @__func__.plugin_add, ptr noundef @.str.7)
  store i32 1, ptr %retval, align 4
  br label %return

if.end:                                           ; preds = %if.then
  %4 = load ptr, ptr %arg, align 8
  %head = getelementptr inbounds %struct.qemu_plugin_parse_arg, ptr %4, i32 0, i32 0
  %5 = load ptr, ptr %head, align 8
  %6 = load ptr, ptr %value.addr, align 8
  %call4 = call ptr @plugin_find_desc(ptr noundef %5, ptr noundef %6)
  store ptr %call4, ptr %p, align 8
  %7 = load ptr, ptr %p, align 8
  %cmp5 = icmp eq ptr %7, null
  br i1 %cmp5, label %if.then6, label %if.end18

if.then6:                                         ; preds = %if.end
  %call7 = call noalias ptr @g_malloc0_n(i64 noundef 1, i64 noundef 40) #11
  store ptr %call7, ptr %p, align 8
  %8 = load ptr, ptr %value.addr, align 8
  %call8 = call noalias ptr @g_strdup(ptr noundef %8)
  %9 = load ptr, ptr %p, align 8
  %path = getelementptr inbounds %struct.qemu_plugin_desc, ptr %9, i32 0, i32 0
  store ptr %call8, ptr %path, align 8
  br label %do.body

do.body:                                          ; preds = %if.then6
  %10 = load ptr, ptr %p, align 8
  %entry9 = getelementptr inbounds %struct.qemu_plugin_desc, ptr %10, i32 0, i32 2
  store ptr null, ptr %entry9, align 8
  %11 = load ptr, ptr %arg, align 8
  %head10 = getelementptr inbounds %struct.qemu_plugin_parse_arg, ptr %11, i32 0, i32 0
  %12 = load ptr, ptr %head10, align 8
  %tql_prev = getelementptr inbounds %struct.QTailQLink, ptr %12, i32 0, i32 1
  %13 = load ptr, ptr %tql_prev, align 8
  %14 = load ptr, ptr %p, align 8
  %entry11 = getelementptr inbounds %struct.qemu_plugin_desc, ptr %14, i32 0, i32 2
  %tql_prev12 = getelementptr inbounds %struct.QTailQLink, ptr %entry11, i32 0, i32 1
  store ptr %13, ptr %tql_prev12, align 8
  %15 = load ptr, ptr %p, align 8
  %16 = load ptr, ptr %arg, align 8
  %head13 = getelementptr inbounds %struct.qemu_plugin_parse_arg, ptr %16, i32 0, i32 0
  %17 = load ptr, ptr %head13, align 8
  %tql_prev14 = getelementptr inbounds %struct.QTailQLink, ptr %17, i32 0, i32 1
  %18 = load ptr, ptr %tql_prev14, align 8
  %tql_next = getelementptr inbounds %struct.QTailQLink, ptr %18, i32 0, i32 0
  store ptr %15, ptr %tql_next, align 8
  %19 = load ptr, ptr %p, align 8
  %entry15 = getelementptr inbounds %struct.qemu_plugin_desc, ptr %19, i32 0, i32 2
  %20 = load ptr, ptr %arg, align 8
  %head16 = getelementptr inbounds %struct.qemu_plugin_parse_arg, ptr %20, i32 0, i32 0
  %21 = load ptr, ptr %head16, align 8
  %tql_prev17 = getelementptr inbounds %struct.QTailQLink, ptr %21, i32 0, i32 1
  store ptr %entry15, ptr %tql_prev17, align 8
  br label %do.end

do.end:                                           ; preds = %do.body
  br label %if.end18

if.end18:                                         ; preds = %do.end, %if.end
  %22 = load ptr, ptr %p, align 8
  %23 = load ptr, ptr %arg, align 8
  %curr = getelementptr inbounds %struct.qemu_plugin_parse_arg, ptr %23, i32 0, i32 1
  store ptr %22, ptr %curr, align 8
  br label %if.end44

if.else:                                          ; preds = %entry
  %24 = load ptr, ptr %arg, align 8
  %curr19 = getelementptr inbounds %struct.qemu_plugin_parse_arg, ptr %24, i32 0, i32 1
  %25 = load ptr, ptr %curr19, align 8
  %cmp20 = icmp eq ptr %25, null
  br i1 %cmp20, label %if.then21, label %if.end22

if.then21:                                        ; preds = %if.else
  %26 = load ptr, ptr %errp.addr, align 8
  call void (ptr, ptr, i32, ptr, ptr, ...) @error_setg_internal(ptr noundef %26, ptr noundef @.str.3, i32 noundef 116, ptr noundef @__func__.plugin_add, ptr noundef @.str.8)
  store i32 1, ptr %retval, align 4
  br label %return

if.end22:                                         ; preds = %if.else
  %27 = load ptr, ptr %name.addr, align 8
  %call23 = call i32 @g_strcmp0(ptr noundef %27, ptr noundef @.str.9)
  %cmp24 = icmp eq i32 %call23, 0
  br i1 %cmp24, label %land.lhs.true, label %if.else35

land.lhs.true:                                    ; preds = %if.end22
  %28 = load ptr, ptr %name.addr, align 8
  %29 = load ptr, ptr %value.addr, align 8
  %call25 = call zeroext i1 @qapi_bool_parse(ptr noundef %28, ptr noundef %29, ptr noundef %is_on, ptr noundef null)
  br i1 %call25, label %if.else35, label %if.then26

if.then26:                                        ; preds = %land.lhs.true
  %30 = load ptr, ptr %value.addr, align 8
  %call27 = call ptr @strchr(ptr noundef %30, i32 noundef 61) #10
  %cmp28 = icmp eq ptr %call27, null
  br i1 %cmp28, label %if.then29, label %if.else31

if.then29:                                        ; preds = %if.then26
  %31 = load ptr, ptr %value.addr, align 8
  %call30 = call noalias ptr (ptr, ...) @g_strdup_printf(ptr noundef @.str.10, ptr noundef %31, ptr noundef @.str.11)
  store ptr %call30, ptr %fullarg, align 8
  br label %if.end33

if.else31:                                        ; preds = %if.then26
  %32 = load ptr, ptr %value.addr, align 8
  %call32 = call noalias ptr (ptr, ...) @g_strdup_printf(ptr noundef @.str.12, ptr noundef %32)
  store ptr %call32, ptr %fullarg, align 8
  br label %if.end33

if.end33:                                         ; preds = %if.else31, %if.then29
  %33 = load ptr, ptr %value.addr, align 8
  call void (ptr, ...) @warn_report(ptr noundef @.str.13, ptr noundef %33)
  %34 = load ptr, ptr %fullarg, align 8
  %call34 = call i32 (ptr, ...) @error_printf(ptr noundef @.str.14, ptr noundef %34)
  br label %if.end37

if.else35:                                        ; preds = %land.lhs.true, %if.end22
  %35 = load ptr, ptr %name.addr, align 8
  %36 = load ptr, ptr %value.addr, align 8
  %call36 = call noalias ptr (ptr, ...) @g_strdup_printf(ptr noundef @.str.10, ptr noundef %35, ptr noundef %36)
  store ptr %call36, ptr %fullarg, align 8
  br label %if.end37

if.end37:                                         ; preds = %if.else35, %if.end33
  %37 = load ptr, ptr %arg, align 8
  %curr38 = getelementptr inbounds %struct.qemu_plugin_parse_arg, ptr %37, i32 0, i32 1
  %38 = load ptr, ptr %curr38, align 8
  store ptr %38, ptr %p, align 8
  %39 = load ptr, ptr %p, align 8
  %argc = getelementptr inbounds %struct.qemu_plugin_desc, ptr %39, i32 0, i32 3
  %40 = load i32, ptr %argc, align 8
  %inc = add i32 %40, 1
  store i32 %inc, ptr %argc, align 8
  %41 = load ptr, ptr %p, align 8
  %argv = getelementptr inbounds %struct.qemu_plugin_desc, ptr %41, i32 0, i32 1
  %42 = load ptr, ptr %argv, align 8
  %43 = load ptr, ptr %p, align 8
  %argc39 = getelementptr inbounds %struct.qemu_plugin_desc, ptr %43, i32 0, i32 3
  %44 = load i32, ptr %argc39, align 8
  %conv = sext i32 %44 to i64
  %call40 = call ptr @g_realloc_n(ptr noundef %42, i64 noundef %conv, i64 noundef 8)
  %45 = load ptr, ptr %p, align 8
  %argv41 = getelementptr inbounds %struct.qemu_plugin_desc, ptr %45, i32 0, i32 1
  store ptr %call40, ptr %argv41, align 8
  %46 = load ptr, ptr %fullarg, align 8
  %47 = load ptr, ptr %p, align 8
  %argv42 = getelementptr inbounds %struct.qemu_plugin_desc, ptr %47, i32 0, i32 1
  %48 = load ptr, ptr %argv42, align 8
  %49 = load ptr, ptr %p, align 8
  %argc43 = getelementptr inbounds %struct.qemu_plugin_desc, ptr %49, i32 0, i32 3
  %50 = load i32, ptr %argc43, align 8
  %sub = sub i32 %50, 1
  %idxprom = sext i32 %sub to i64
  %arrayidx = getelementptr ptr, ptr %48, i64 %idxprom
  store ptr %46, ptr %arrayidx, align 8
  br label %if.end44

if.end44:                                         ; preds = %if.end37, %if.end18
  store i32 0, ptr %retval, align 4
  br label %return

return:                                           ; preds = %if.end44, %if.then21, %if.then3
  %51 = load i32, ptr %retval, align 4
  ret i32 %51
}