; Function Attrs: nounwind sspstrong uwtable
define internal range(i32 0, 2) i32 @plugin_add(ptr noundef captures(none) %opaque, ptr noundef %name, ptr noundef %value, ptr noundef %errp) #0 {
entry:
  %is_on = alloca i8, align 1
  %call = tail call i32 @strcmp(ptr noundef nonnull dereferenceable(1) %name, ptr noundef nonnull dereferenceable(5) @.str.1) #14
  %cmp = icmp eq i32 %call, 0
  br i1 %cmp, label %if.then, label %if.else

if.then:                                          ; preds = %entry
  %strcmpload = load i8, ptr %value, align 1
  %cmp2 = icmp eq i8 %strcmpload, 0
  br i1 %cmp2, label %if.then3, label %if.end

if.then3:                                         ; preds = %if.then
  tail call void (ptr, ptr, i32, ptr, ptr, ...) @error_setg_internal(ptr noundef %errp, ptr noundef nonnull @.str.3, i32 noundef 104, ptr noundef nonnull @__func__.plugin_add, ptr noundef nonnull @.str.7) #11
  br label %return

if.end:                                           ; preds = %if.then
  %0 = load ptr, ptr %opaque, align 8
  %desc.04.i = load ptr, ptr %0, align 8
  %tobool.not5.i = icmp eq ptr %desc.04.i, null
  br i1 %tobool.not5.i, label %if.then6, label %for.body.i

for.body.i:                                       ; preds = %if.end, %for.inc.i
  %desc.06.i = phi ptr [ %desc.0.i, %for.inc.i ], [ %desc.04.i, %if.end ]
  %1 = load ptr, ptr %desc.06.i, align 8
  %call.i = tail call i32 @strcmp(ptr noundef nonnull dereferenceable(1) %1, ptr noundef nonnull readonly dereferenceable(1) %value) #14
  %cmp.i = icmp eq i32 %call.i, 0
  br i1 %cmp.i, label %if.end18, label %for.inc.i

for.inc.i:                                        ; preds = %for.body.i
  %entry2.i = getelementptr inbounds nuw i8, ptr %desc.06.i, i64 16
  %desc.0.i = load ptr, ptr %entry2.i, align 8
  %tobool.not.i = icmp eq ptr %desc.0.i, null
  br i1 %tobool.not.i, label %if.then6, label %for.body.i, !llvm.loop !5

if.then6:                                         ; preds = %for.inc.i, %if.end
  %call7 = tail call noalias dereferenceable_or_null(40) ptr @g_malloc0_n(i64 noundef 1, i64 noundef 40) #15
  %call8 = tail call noalias ptr @g_strdup(ptr noundef nonnull %value) #11
  store ptr %call8, ptr %call7, align 8
  %entry9 = getelementptr inbounds nuw i8, ptr %call7, i64 16
  store ptr null, ptr %entry9, align 8
  %2 = load ptr, ptr %opaque, align 8
  %tql_prev = getelementptr inbounds nuw i8, ptr %2, i64 8
  %3 = load ptr, ptr %tql_prev, align 8
  %tql_prev12 = getelementptr inbounds nuw i8, ptr %call7, i64 24
  store ptr %3, ptr %tql_prev12, align 8
  store ptr %call7, ptr %3, align 8
  %4 = load ptr, ptr %opaque, align 8
  %tql_prev17 = getelementptr inbounds nuw i8, ptr %4, i64 8
  store ptr %entry9, ptr %tql_prev17, align 8
  br label %if.end18

if.end18:                                         ; preds = %for.body.i, %if.then6
  %p.0 = phi ptr [ %call7, %if.then6 ], [ %desc.06.i, %for.body.i ]
  %curr = getelementptr inbounds nuw i8, ptr %opaque, i64 8
  store ptr %p.0, ptr %curr, align 8
  br label %return

if.else:                                          ; preds = %entry
  %curr19 = getelementptr inbounds nuw i8, ptr %opaque, i64 8
  %5 = load ptr, ptr %curr19, align 8
  %cmp20 = icmp eq ptr %5, null
  br i1 %cmp20, label %if.then21, label %if.end22

if.then21:                                        ; preds = %if.else
  tail call void (ptr, ptr, i32, ptr, ptr, ...) @error_setg_internal(ptr noundef %errp, ptr noundef nonnull @.str.3, i32 noundef 116, ptr noundef nonnull @__func__.plugin_add, ptr noundef nonnull @.str.8) #11
  br label %return

if.end22:                                         ; preds = %if.else
  %call23 = tail call i32 @g_strcmp0(ptr noundef nonnull %name, ptr noundef nonnull @.str.9) #11
  %cmp24 = icmp eq i32 %call23, 0
  br i1 %cmp24, label %land.lhs.true, label %if.else35

land.lhs.true:                                    ; preds = %if.end22
  %call25 = call zeroext i1 @qapi_bool_parse(ptr noundef nonnull %name, ptr noundef %value, ptr noundef nonnull %is_on, ptr noundef null) #11
  br i1 %call25, label %if.else35, label %if.then26

if.then26:                                        ; preds = %land.lhs.true
  %call27 = call ptr @strchr(ptr noundef nonnull dereferenceable(1) %value, i32 noundef 61) #14
  %cmp28 = icmp eq ptr %call27, null
  br i1 %cmp28, label %if.then29, label %if.else31

if.then29:                                        ; preds = %if.then26
  %call30 = call noalias ptr (ptr, ...) @g_strdup_printf(ptr noundef nonnull @.str.10, ptr noundef nonnull %value, ptr noundef nonnull @.str.11) #11
  br label %if.end33

if.else31:                                        ; preds = %if.then26
  %call32 = call noalias ptr (ptr, ...) @g_strdup_printf(ptr noundef nonnull @.str.12, ptr noundef nonnull %value) #11
  br label %if.end33

if.end33:                                         ; preds = %if.else31, %if.then29
  %fullarg.0 = phi ptr [ %call30, %if.then29 ], [ %call32, %if.else31 ]
  call void (ptr, ...) @warn_report(ptr noundef nonnull @.str.13, ptr noundef nonnull %value) #11
  %call34 = call i32 (ptr, ...) @error_printf(ptr noundef nonnull @.str.14, ptr noundef %fullarg.0) #11
  br label %if.end37

if.else35:                                        ; preds = %land.lhs.true, %if.end22
  %call36 = call noalias ptr (ptr, ...) @g_strdup_printf(ptr noundef nonnull @.str.10, ptr noundef nonnull %name, ptr noundef %value) #11
  br label %if.end37

if.end37:                                         ; preds = %if.else35, %if.end33
  %fullarg.1 = phi ptr [ %call36, %if.else35 ], [ %fullarg.0, %if.end33 ]
  %6 = load ptr, ptr %curr19, align 8
  %argc = getelementptr inbounds nuw i8, ptr %6, i64 32
  %7 = load i32, ptr %argc, align 8
  %inc = add i32 %7, 1
  store i32 %inc, ptr %argc, align 8
  %argv = getelementptr inbounds nuw i8, ptr %6, i64 8
  %8 = load ptr, ptr %argv, align 8
  %conv = sext i32 %inc to i64
  %call40 = call ptr @g_realloc_n(ptr noundef %8, i64 noundef %conv, i64 noundef 8) #11
  store ptr %call40, ptr %argv, align 8
  %9 = load i32, ptr %argc, align 8
  %sub = add i32 %9, -1
  %idxprom = sext i32 %sub to i64
  %arrayidx = getelementptr ptr, ptr %call40, i64 %idxprom
  store ptr %fullarg.1, ptr %arrayidx, align 8
  br label %return

return:                                           ; preds = %if.end18, %if.end37, %if.then21, %if.then3
  %retval.0 = phi i32 [ 1, %if.then3 ], [ 1, %if.then21 ], [ 0, %if.end37 ], [ 0, %if.end18 ]
  ret i32 %retval.0
}